; ModuleID = '26/916.c'
source_filename = "26/916.c"
target datalayout = "e-m:e-p270:32:32-p271:32:32-p272:64:64-i64:64-f80:128-n8:16:32:64-S128"
target triple = "x86_64-pc-linux-gnu"

@maxLen = dso_local constant i32 1000, align 4
@s = common dso_local global [1001 x i8] zeroinitializer, align 16
@t = common dso_local global [1001 x i8] zeroinitializer, align 16

; Function Attrs: noinline nounwind uwtable
define dso_local i32 @main() #0 {
  %1 = alloca i32, align 4
  %2 = alloca i32, align 4
  %3 = alloca i32, align 4
  %4 = alloca i32, align 4
  store i32 0, i32* %1, align 4
  br label %5

5:                                                ; preds = %83, %0
  %6 = call i32 (i8*, ...) bitcast (i32 (...)* @gets to i32 (i8*, ...)*)(i8* getelementptr inbounds ([1001 x i8], [1001 x i8]* @s, i64 0, i64 0))
  %7 = sext i32 %6 to i64
  %8 = inttoptr i64 %7 to i8*
  %9 = icmp ne i8* %8, null
  br i1 %9, label %10, label %85

10:                                               ; preds = %5
  %11 = call i64 @strlen(i8* getelementptr inbounds ([1001 x i8], [1001 x i8]* @s, i64 0, i64 0)) #3
  %12 = trunc i64 %11 to i32
  store i32 %12, i32* %3, align 4
  store i32 0, i32* %2, align 4
  br label %13

13:                                               ; preds = %21, %10
  %14 = load i32, i32* %2, align 4
  %15 = sext i32 %14 to i64
  %16 = getelementptr inbounds [1001 x i8], [1001 x i8]* @s, i64 0, i64 %15
  %17 = load i8, i8* %16, align 1
  %18 = sext i8 %17 to i32
  %19 = icmp eq i32 %18, 32
  br i1 %19, label %20, label %24

20:                                               ; preds = %13
  br label %21

21:                                               ; preds = %20
  %22 = load i32, i32* %2, align 4
  %23 = add nsw i32 %22, 1
  store i32 %23, i32* %2, align 4
  br label %13

24:                                               ; preds = %13
  store i32 0, i32* %4, align 4
  br label %25

25:                                               ; preds = %60, %24
  %26 = load i32, i32* %2, align 4
  %27 = load i32, i32* %3, align 4
  %28 = icmp slt i32 %26, %27
  br i1 %28, label %29, label %63

29:                                               ; preds = %25
  %30 = load i32, i32* %2, align 4
  %31 = sext i32 %30 to i64
  %32 = getelementptr inbounds [1001 x i8], [1001 x i8]* @s, i64 0, i64 %31
  %33 = load i8, i8* %32, align 1
  %34 = sext i8 %33 to i32
  %35 = icmp ne i32 %34, 32
  br i1 %35, label %36, label %45

36:                                               ; preds = %29
  %37 = load i32, i32* %2, align 4
  %38 = sext i32 %37 to i64
  %39 = getelementptr inbounds [1001 x i8], [1001 x i8]* @s, i64 0, i64 %38
  %40 = load i8, i8* %39, align 1
  %41 = load i32, i32* %4, align 4
  %42 = add nsw i32 %41, 1
  store i32 %42, i32* %4, align 4
  %43 = sext i32 %41 to i64
  %44 = getelementptr inbounds [1001 x i8], [1001 x i8]* @t, i64 0, i64 %43
  store i8 %40, i8* %44, align 1
  br label %59

45:                                               ; preds = %29
  %46 = load i32, i32* %2, align 4
  %47 = sub nsw i32 %46, 1
  %48 = sext i32 %47 to i64
  %49 = getelementptr inbounds [1001 x i8], [1001 x i8]* @s, i64 0, i64 %48
  %50 = load i8, i8* %49, align 1
  %51 = sext i8 %50 to i32
  %52 = icmp ne i32 %51, 32
  br i1 %52, label %53, label %58

53:                                               ; preds = %45
  %54 = load i32, i32* %4, align 4
  %55 = add nsw i32 %54, 1
  store i32 %55, i32* %4, align 4
  %56 = sext i32 %54 to i64
  %57 = getelementptr inbounds [1001 x i8], [1001 x i8]* @t, i64 0, i64 %56
  store i8 32, i8* %57, align 1
  br label %58

58:                                               ; preds = %53, %45
  br label %59

59:                                               ; preds = %58, %36
  br label %60

60:                                               ; preds = %59
  %61 = load i32, i32* %2, align 4
  %62 = add nsw i32 %61, 1
  store i32 %62, i32* %2, align 4
  br label %25

63:                                               ; preds = %25
  %64 = load i32, i32* %4, align 4
  %65 = icmp sgt i32 %64, 0
  br i1 %65, label %66, label %79

66:                                               ; preds = %63
  %67 = load i32, i32* %4, align 4
  %68 = sub nsw i32 %67, 1
  %69 = sext i32 %68 to i64
  %70 = getelementptr inbounds [1001 x i8], [1001 x i8]* @t, i64 0, i64 %69
  %71 = load i8, i8* %70, align 1
  %72 = sext i8 %71 to i32
  %73 = icmp eq i32 %72, 32
  br i1 %73, label %74, label %79

74:                                               ; preds = %66
  %75 = load i32, i32* %4, align 4
  %76 = sub nsw i32 %75, 1
  %77 = sext i32 %76 to i64
  %78 = getelementptr inbounds [1001 x i8], [1001 x i8]* @t, i64 0, i64 %77
  store i8 0, i8* %78, align 1
  br label %83

79:                                               ; preds = %66, %63
  %80 = load i32, i32* %4, align 4
  %81 = sext i32 %80 to i64
  %82 = getelementptr inbounds [1001 x i8], [1001 x i8]* @t, i64 0, i64 %81
  store i8 0, i8* %82, align 1
  br label %83

83:                                               ; preds = %79, %74
  %84 = call i32 @puts(i8* getelementptr inbounds ([1001 x i8], [1001 x i8]* @t, i64 0, i64 0))
  br label %5

85:                                               ; preds = %5
  ret i32 0
}

declare dso_local i32 @gets(...) #1

; Function Attrs: nounwind readonly
declare dso_local i64 @strlen(i8*) #2

declare dso_local i32 @puts(i8*) #1


!llvm.module.flags = !{!0}
!llvm.ident = !{!1}

!0 = !{i32 1, !"wchar_size", i32 4}
!1 = !{!"clang version 10.0.0-4ubuntu1 "}
